target datalayout = "e-m:e-p270:32:32-p271:32:32-p272:64:64-i64:64-i128:128-f80:128-n8:16:32:64-S128"
target triple = "x86_64-unknown-linux-gnu"

%struct.uv_fs_s = type { ptr, i32, [6 x ptr], i32, ptr, ptr, i64, ptr, ptr, %struct.uv_stat_t, ptr, i32, i32, i32, i32, ptr, i64, i32, i32, double, double, %struct.uv__work, [4 x %struct.uv_buf_t] }
%struct.uv_stat_t = type { i64, i64, i64, i64, i64, i64, i64, i64, i64, i64, i64, i64, %struct.uv_timespec_t, %struct.uv_timespec_t, %struct.uv_timespec_t, %struct.uv_timespec_t }
%struct.uv_timespec_t = type { i64, i64 }
%struct.uv__work = type { ptr, ptr, ptr, %struct.uv__queue }
%struct.uv__queue = type { ptr, ptr }
%struct.uv_buf_t = type { ptr, i64 }
%struct.uv_loop_s = type { ptr, i32, %struct.uv__queue, %union.anon, ptr, i32, i64, i32, %struct.uv__queue, %struct.uv__queue, ptr, i32, i32, %struct.uv__queue, %union.pthread_mutex_t, %struct.uv_async_s, %union.pthread_rwlock_t, ptr, %struct.uv__queue, %struct.uv__queue, %struct.uv__queue, %struct.uv__queue, %struct.uv__queue, ptr, %struct.uv__io_s, i32, %struct.anon, i64, i64, [2 x i32], %struct.uv__io_s, %struct.uv_signal_s, i32, %struct.uv__io_s, ptr, i32 }
%union.anon = type { ptr }
%union.pthread_mutex_t = type { %struct.__pthread_mutex_s }
%struct.__pthread_mutex_s = type { i32, i32, i32, i32, i32, i16, i16, %struct.__pthread_internal_list }
%struct.__pthread_internal_list = type { ptr, ptr }
%struct.uv_async_s = type { ptr, ptr, i32, ptr, %struct.uv__queue, %union.anon.0, ptr, i32, ptr, %struct.uv__queue, i32 }
%union.anon.0 = type { [4 x ptr] }
%union.pthread_rwlock_t = type { %struct.__pthread_rwlock_arch_t }
%struct.__pthread_rwlock_arch_t = type { i32, i32, i32, i32, i32, i32, i32, i32, i8, [7 x i8], i64, i32 }
%struct.anon = type { ptr, i32 }
%struct.uv_signal_s = type { ptr, ptr, i32, ptr, %struct.uv__queue, %union.anon.1, ptr, i32, ptr, i32, %struct.anon.2, i32, i32 }
%union.anon.1 = type { [4 x ptr] }
%struct.anon.2 = type { ptr, ptr, ptr, i32 }
%struct.uv__io_s = type { ptr, %struct.uv__queue, %struct.uv__queue, i32, i32, i32 }

; Function Attrs: nounwind uwtable
define internal void @uv__fs_done(ptr noundef %w, i32 noundef %status) #0 {
entry:
  %w.addr = alloca ptr, align 8
  %status.addr = alloca i32, align 4
  %req = alloca ptr, align 8
  store ptr %w, ptr %w.addr, align 8
  store i32 %status, ptr %status.addr, align 4
  %0 = load ptr, ptr %w.addr, align 8
  %add.ptr = getelementptr inbounds i8, ptr %0, i64 -336
  store ptr %add.ptr, ptr %req, align 8
  br label %do.body

do.body:                                          ; preds = %entry
  %1 = load ptr, ptr %req, align 8
  %loop = getelementptr inbounds %struct.uv_fs_s, ptr %1, i32 0, i32 4
  %2 = load ptr, ptr %loop, align 8
  %active_reqs = getelementptr inbounds %struct.uv_loop_s, ptr %2, i32 0, i32 3
  %3 = load i32, ptr %active_reqs, align 8
  %dec = add i32 %3, -1
  store i32 %dec, ptr %active_reqs, align 8
  br label %do.end

do.end:                                           ; preds = %do.body
  %4 = load i32, ptr %status.addr, align 4
  %cmp = icmp eq i32 %4, -125
  br i1 %cmp, label %if.then, label %if.end

if.then:                                          ; preds = %do.end
  %5 = load ptr, ptr %req, align 8
  %result = getelementptr inbounds %struct.uv_fs_s, ptr %5, i32 0, i32 6
  store i64 -125, ptr %result, align 8
  br label %if.end

if.end:                                           ; preds = %if.then, %do.end
  %6 = load ptr, ptr %req, align 8
  %cb = getelementptr inbounds %struct.uv_fs_s, ptr %6, i32 0, i32 5
  %7 = load ptr, ptr %cb, align 8
  %8 = load ptr, ptr %req, align 8
  call void %7(ptr noundef %8)
  ret void
}