; Function Attrs: nounwind uwtable
define internal void @uv__fs_done(ptr noundef %w, i32 noundef %status) #0 {
entry:
  %loop = getelementptr inbounds i8, ptr %w, i64 -264
  %0 = load ptr, ptr %loop, align 8
  %active_reqs = getelementptr inbounds nuw i8, ptr %0, i64 32
  %1 = load i32, ptr %active_reqs, align 8
  %dec = add i32 %1, -1
  store i32 %dec, ptr %active_reqs, align 8
  %cmp = icmp eq i32 %status, -125
  br i1 %cmp, label %if.then, label %if.end

if.then:                                          ; preds = %entry
  %result = getelementptr inbounds i8, ptr %w, i64 -248
  store i64 -125, ptr %result, align 8
  br label %if.end

if.end:                                           ; preds = %if.then, %entry
  %add.ptr = getelementptr inbounds i8, ptr %w, i64 -336
  %cb = getelementptr inbounds i8, ptr %w, i64 -256
  %2 = load ptr, ptr %cb, align 8
  tail call void %2(ptr noundef nonnull %add.ptr) #15
  ret void
}